target datalayout = "e-m:e-p270:32:32-p271:32:32-p272:64:64-i64:64-i128:128-f80:128-n8:16:32:64-S128"
target triple = "x86_64-unknown-linux-gnu"

%"class.QuantLib::Date" = type { i64 }
%"class.boost::detail::shared_count" = type { ptr }
%"class.boost::optional" = type { %"class.boost::optional_detail::tc_optional_base" }
%"class.boost::optional_detail::tc_optional_base" = type { i8, i8 }
%"class.QuantLib::DayCounter" = type { %"class.boost::shared_ptr.6" }
%"class.boost::shared_ptr.6" = type { ptr, %"class.boost::detail::shared_count" }
%"class.QuantLib::MakeVanillaSwap" = type { %"class.QuantLib::Period", %"class.boost::shared_ptr.18", double, %"class.QuantLib::Period", i32, %"class.QuantLib::Date", %"class.QuantLib::Date", %"class.QuantLib::Calendar", %"class.QuantLib::Calendar", i32, double, %"class.QuantLib::Period", %"class.QuantLib::Period", i32, i32, i32, i32, i32, i32, i8, i8, %"class.QuantLib::Date", %"class.QuantLib::Date", %"class.QuantLib::Date", %"class.QuantLib::Date", double, %"class.QuantLib::DayCounter", %"class.QuantLib::DayCounter", %"class.boost::optional", %"class.boost::optional.19", %"class.boost::shared_ptr.21" }
%"class.boost::shared_ptr.18" = type { ptr, %"class.boost::detail::shared_count" }
%"class.QuantLib::Calendar" = type { %"class.boost::shared_ptr.7" }
%"class.boost::shared_ptr.7" = type { ptr, %"class.boost::detail::shared_count" }
%"class.QuantLib::Period" = type { i32, i32 }
%"class.boost::optional.19" = type { %"class.boost::optional_detail::tc_optional_base.20" }
%"class.boost::optional_detail::tc_optional_base.20" = type { i8, i32 }
%"class.boost::shared_ptr.21" = type { ptr, %"class.boost::detail::shared_count" }

; Function Attrs: mustprogress uwtable
define noundef nonnull align 8 dereferenceable(264) ptr @_ZN8QuantLib15MakeVanillaSwap18withSettlementDaysEj(ptr noundef nonnull align 8 dereferenceable(264) %this, i32 noundef %settlementDays) #2 align 2 {
entry:
  %this.addr = alloca ptr, align 8
  %settlementDays.addr = alloca i32, align 4
  %ref.tmp = alloca %"class.QuantLib::Date", align 8
  store ptr %this, ptr %this.addr, align 8, !tbaa !3
  store i32 %settlementDays, ptr %settlementDays.addr, align 4, !tbaa !17
  %this1 = load ptr, ptr %this.addr, align 8
  %0 = load i32, ptr %settlementDays.addr, align 4, !tbaa !17
  %settlementDays_ = getelementptr inbounds nuw %"class.QuantLib::MakeVanillaSwap", ptr %this1, i32 0, i32 4
  store i32 %0, ptr %settlementDays_, align 8, !tbaa !40
  call void @llvm.lifetime.start.p0(i64 8, ptr %ref.tmp) #13
  call void @_ZN8QuantLib4DateC1Ev(ptr noundef nonnull align 8 dereferenceable(8) %ref.tmp)
  %effectiveDate_ = getelementptr inbounds nuw %"class.QuantLib::MakeVanillaSwap", ptr %this1, i32 0, i32 5
  call void @llvm.memcpy.p0.p0.i64(ptr align 8 %effectiveDate_, ptr align 8 %ref.tmp, i64 8, i1 false), !tbaa.struct !81
  call void @llvm.lifetime.end.p0(i64 8, ptr %ref.tmp) #13
  ret ptr %this1
}